; Function Attrs: nofree nounwind uwtable
define noalias noundef ptr @Abc_NtkAssignStarts(ptr noundef readonly captures(none) %0, ptr noundef readonly captures(none) %1, ptr noundef writeonly captures(none) %2) local_unnamed_addr #3 {
  %4 = getelementptr i8, ptr %0, i64 140
  %.val28 = load i32, ptr %4, align 4, !tbaa !40
  %5 = tail call noalias dereferenceable_or_null(16) ptr @malloc(i64 noundef 16) #17
  %6 = add i32 %.val28, -1
  %or.cond.i.i = icmp ult i32 %6, 15
  %spec.store.select.i.i = select i1 %or.cond.i.i, i32 16, i32 %.val28
  %7 = getelementptr inbounds nuw i8, ptr %5, i64 4
  store i32 %spec.store.select.i.i, ptr %5, align 8, !tbaa !41
  %.not.i.i = icmp eq i32 %spec.store.select.i.i, 0
  br i1 %.not.i.i, label %Vec_IntAlloc.exit.thread.i, label %Vec_IntAlloc.exit.i

Vec_IntAlloc.exit.thread.i:                       ; preds = %3
  %8 = getelementptr inbounds nuw i8, ptr %5, i64 8
  store ptr null, ptr %8, align 8, !tbaa !42
  store i32 %.val28, ptr %7, align 4, !tbaa !43
  br label %Vec_IntStart.exit

Vec_IntAlloc.exit.i:                              ; preds = %3
  %9 = sext i32 %spec.store.select.i.i to i64
  %10 = shl nsw i64 %9, 2
  %11 = tail call noalias ptr @malloc(i64 noundef %10) #17
  %12 = getelementptr inbounds nuw i8, ptr %5, i64 8
  store ptr %11, ptr %12, align 8, !tbaa !42
  store i32 %.val28, ptr %7, align 4, !tbaa !43
  %.not.i = icmp eq ptr %11, null
  br i1 %.not.i, label %Vec_IntStart.exit, label %13

13:                                               ; preds = %Vec_IntAlloc.exit.i
  %14 = sext i32 %.val28 to i64
  %15 = shl nsw i64 %14, 2
  tail call void @llvm.memset.p0.i64(ptr nonnull align 4 %11, i8 0, i64 %15, i1 false)
  br label %Vec_IntStart.exit

Vec_IntStart.exit:                                ; preds = %Vec_IntAlloc.exit.thread.i, %Vec_IntAlloc.exit.i, %13
  %.val30 = phi ptr [ null, %Vec_IntAlloc.exit.thread.i ], [ null, %Vec_IntAlloc.exit.i ], [ %11, %13 ]
  %16 = getelementptr i8, ptr %1, i64 4
  %.val32 = load i32, ptr %16, align 4, !tbaa !24
  %17 = icmp sgt i32 %.val32, 0
  br i1 %17, label %.lr.ph, label %.critedge.preheader

.lr.ph:                                           ; preds = %Vec_IntStart.exit
  %18 = getelementptr i8, ptr %1, i64 8
  %.val25 = load ptr, ptr %18, align 8, !tbaa !26
  %19 = zext nneg i32 %.val32 to i64
  br label %24

.critedge.preheader:                              ; preds = %24, %Vec_IntStart.exit
  %.0.lcssa = phi i32 [ 0, %Vec_IntStart.exit ], [ %36, %24 ]
  %20 = getelementptr i8, ptr %0, i64 64
  %.val26 = load ptr, ptr %20, align 8, !tbaa !31
  %21 = getelementptr i8, ptr %.val26, i64 4
  %.val26.val35 = load i32, ptr %21, align 4, !tbaa !24
  %22 = icmp sgt i32 %.val26.val35, 0
  br i1 %22, label %.lr.ph38, label %.critedge2

.lr.ph38:                                         ; preds = %.critedge.preheader
  %23 = getelementptr i8, ptr %.val26, i64 8
  %.val27.val = load ptr, ptr %23, align 8, !tbaa !26
  br label %.critedge

24:                                               ; preds = %.lr.ph, %24
  %indvars.iv = phi i64 [ 0, %.lr.ph ], [ %indvars.iv.next, %24 ]
  %.034 = phi i32 [ 0, %.lr.ph ], [ %36, %24 ]
  %25 = getelementptr inbounds nuw ptr, ptr %.val25, i64 %indvars.iv
  %26 = load ptr, ptr %25, align 8, !tbaa !27
  %27 = getelementptr inbounds nuw i8, ptr %26, i64 64
  %28 = load i32, ptr %27, align 8, !tbaa !28
  %29 = sext i32 %28 to i64
  %30 = getelementptr inbounds i32, ptr %.val30, i64 %29
  store i32 %.034, ptr %30, align 4, !tbaa !35
  %31 = getelementptr i8, ptr %26, i64 28
  %.val31 = load i32, ptr %31, align 4, !tbaa !44
  %32 = icmp slt i32 %.val31, 7
  %33 = add nsw i32 %.val31, -6
  %34 = shl nuw i32 1, %33
  %35 = select i1 %32, i32 1, i32 %34
  %36 = add nsw i32 %35, %.034
  %indvars.iv.next = add nuw nsw i64 %indvars.iv, 1
  %37 = icmp samesign ult i64 %indvars.iv.next, %19
  br i1 %37, label %24, label %.critedge.preheader, !llvm.loop !47

.critedge:                                        ; preds = %.lr.ph38, %.critedge
  %indvars.iv42 = phi i64 [ 0, %.lr.ph38 ], [ %indvars.iv.next43, %.critedge ]
  %.137 = phi i32 [ %.0.lcssa, %.lr.ph38 ], [ %42, %.critedge ]
  %38 = getelementptr inbounds nuw ptr, ptr %.val27.val, i64 %indvars.iv42
  %39 = load ptr, ptr %38, align 8, !tbaa !27
  %40 = getelementptr inbounds nuw i8, ptr %39, i64 64
  %41 = load i32, ptr %40, align 8, !tbaa !28
  %42 = add nsw i32 %.137, 1
  %43 = sext i32 %41 to i64
  %44 = getelementptr inbounds i32, ptr %.val30, i64 %43
  store i32 %.137, ptr %44, align 4, !tbaa !35
  %indvars.iv.next43 = add nuw nsw i64 %indvars.iv42, 1
  %.val26.val = load i32, ptr %21, align 4, !tbaa !24
  %45 = sext i32 %.val26.val to i64
  %46 = icmp slt i64 %indvars.iv.next43, %45
  br i1 %46, label %.critedge, label %.critedge2, !llvm.loop !48

.critedge2:                                       ; preds = %.critedge, %.critedge.preheader
  %.1.lcssa = phi i32 [ %.0.lcssa, %.critedge.preheader ], [ %42, %.critedge ]
  store i32 %.1.lcssa, ptr %2, align 4, !tbaa !35
  ret ptr %5
}